; Function Attrs: mustprogress uwtable
define noundef nonnull align 8 dereferenceable(8) ptr @_ZN4baselsERSoNS_9TimeDeltaE(ptr noundef nonnull align 8 dereferenceable(8) %0, i64 %1) local_unnamed_addr #3 {
  %3 = icmp eq i64 %1, 9223372036854775807
  %4 = sitofp i64 %1 to double
  %5 = fdiv double %4, 1.000000e+06
  %.0.i = select i1 %3, double 0x7FF0000000000000, double %5
  %6 = tail call noundef nonnull align 8 dereferenceable(8) ptr @_ZNSo9_M_insertIdEERSoT_(ptr noundef nonnull align 8 dereferenceable(8) %0, double noundef %.0.i)
  %7 = tail call noundef nonnull align 8 dereferenceable(8) ptr @_ZSt16__ostream_insertIcSt11char_traitsIcEERSt13basic_ostreamIT_T0_ES6_PKS3_l(ptr noundef nonnull align 8 dereferenceable(8) %6, ptr noundef nonnull @.str, i64 noundef 1)
  ret ptr %6
}